; Function Attrs: mustprogress nofree norecurse nosync nounwind sspstrong willreturn memory(readwrite, inaccessiblemem: none) uwtable
define internal void @lru_update_blk(ptr noundef readonly captures(none) %0, i32 noundef %1, i32 noundef %2) #6 {
  %4 = load ptr, ptr %0, align 8
  %5 = sext i32 %1 to i64
  %6 = getelementptr inbounds %struct.CacheSet, ptr %4, i64 %5
  %7 = getelementptr inbounds nuw i8, ptr %6, i64 16
  %8 = load i64, ptr %7, align 8
  %9 = getelementptr inbounds nuw i8, ptr %6, i64 8
  %10 = load ptr, ptr %9, align 8
  %11 = sext i32 %2 to i64
  %12 = getelementptr inbounds i64, ptr %10, i64 %11
  store i64 %8, ptr %12, align 8
  %13 = add i64 %8, 1
  store i64 %13, ptr %7, align 8
  ret void
}